#include <math.h>
#include <stdio.h>
#include <stdlib.h>
#include <string.h>


int main()
{
    int n,k,i,j,k1;
    double S,sum;
    double *p;
    double x[1000];
    scanf("%d",&n);
    for (j=0;j<n;j++){
        sum=0;S=0;
        scanf("%d",&k);
        p=&x[0];
        for (i=0;i<k;i++,p++){
            scanf("%lf",p);
            }
        p=&x[0];
        for (i=0;i<k;i++,p++){
            sum=sum+*p;
            }
       // printf("%f\n",sum);
        sum=sum/k;
        p=&x[0];
        for (i=0;i<k;i++,p++){
            S=S+(*p-sum)*(*p-sum);
            }
      //  printf("%f\n",S);
        S=S/k;
        S=sqrt(S);
        printf("%.5f\n",S);
        p=&x[0];
        for (i=0;i<k;i++,p++){
            *p=0;
            }
        }
    return 0;
}