; ModuleID = '38/1006.c'
source_filename = "38/1006.c"
target datalayout = "e-m:e-p270:32:32-p271:32:32-p272:64:64-i64:64-f80:128-n8:16:32:64-S128"
target triple = "x86_64-pc-linux-gnu"

@.str = private unnamed_addr constant [3 x i8] c"%d\00", align 1
@.str.1 = private unnamed_addr constant [4 x i8] c"%lf\00", align 1
@.str.2 = private unnamed_addr constant [6 x i8] c"%.5f\0A\00", align 1

; Function Attrs: noinline nounwind uwtable
define dso_local i32 @main() #0 {
  %1 = alloca i32, align 4
  %2 = alloca i32, align 4
  %3 = alloca i32, align 4
  %4 = alloca i32, align 4
  %5 = alloca i32, align 4
  %6 = alloca i32, align 4
  %7 = alloca double, align 8
  %8 = alloca double, align 8
  %9 = alloca double*, align 8
  %10 = alloca [1000 x double], align 16
  store i32 0, i32* %1, align 4
  %11 = call i32 (i8*, ...) @__isoc99_scanf(i8* getelementptr inbounds ([3 x i8], [3 x i8]* @.str, i64 0, i64 0), i32* %2)
  store i32 0, i32* %5, align 4
  br label %12

12:                                               ; preds = %96, %0
  %13 = load i32, i32* %5, align 4
  %14 = load i32, i32* %2, align 4
  %15 = icmp slt i32 %13, %14
  br i1 %15, label %16, label %99

16:                                               ; preds = %12
  store double 0.000000e+00, double* %8, align 8
  store double 0.000000e+00, double* %7, align 8
  %17 = call i32 (i8*, ...) @__isoc99_scanf(i8* getelementptr inbounds ([3 x i8], [3 x i8]* @.str, i64 0, i64 0), i32* %3)
  %18 = getelementptr inbounds [1000 x double], [1000 x double]* %10, i64 0, i64 0
  store double* %18, double** %9, align 8
  store i32 0, i32* %4, align 4
  br label %19

19:                                               ; preds = %26, %16
  %20 = load i32, i32* %4, align 4
  %21 = load i32, i32* %3, align 4
  %22 = icmp slt i32 %20, %21
  br i1 %22, label %23, label %31

23:                                               ; preds = %19
  %24 = load double*, double** %9, align 8
  %25 = call i32 (i8*, ...) @__isoc99_scanf(i8* getelementptr inbounds ([4 x i8], [4 x i8]* @.str.1, i64 0, i64 0), double* %24)
  br label %26

26:                                               ; preds = %23
  %27 = load i32, i32* %4, align 4
  %28 = add nsw i32 %27, 1
  store i32 %28, i32* %4, align 4
  %29 = load double*, double** %9, align 8
  %30 = getelementptr inbounds double, double* %29, i32 1
  store double* %30, double** %9, align 8
  br label %19

31:                                               ; preds = %19
  %32 = getelementptr inbounds [1000 x double], [1000 x double]* %10, i64 0, i64 0
  store double* %32, double** %9, align 8
  store i32 0, i32* %4, align 4
  br label %33

33:                                               ; preds = %42, %31
  %34 = load i32, i32* %4, align 4
  %35 = load i32, i32* %3, align 4
  %36 = icmp slt i32 %34, %35
  br i1 %36, label %37, label %47

37:                                               ; preds = %33
  %38 = load double, double* %8, align 8
  %39 = load double*, double** %9, align 8
  %40 = load double, double* %39, align 8
  %41 = fadd double %38, %40
  store double %41, double* %8, align 8
  br label %42

42:                                               ; preds = %37
  %43 = load i32, i32* %4, align 4
  %44 = add nsw i32 %43, 1
  store i32 %44, i32* %4, align 4
  %45 = load double*, double** %9, align 8
  %46 = getelementptr inbounds double, double* %45, i32 1
  store double* %46, double** %9, align 8
  br label %33

47:                                               ; preds = %33
  %48 = load double, double* %8, align 8
  %49 = load i32, i32* %3, align 4
  %50 = sitofp i32 %49 to double
  %51 = fdiv double %48, %50
  store double %51, double* %8, align 8
  %52 = getelementptr inbounds [1000 x double], [1000 x double]* %10, i64 0, i64 0
  store double* %52, double** %9, align 8
  store i32 0, i32* %4, align 4
  br label %53

53:                                               ; preds = %69, %47
  %54 = load i32, i32* %4, align 4
  %55 = load i32, i32* %3, align 4
  %56 = icmp slt i32 %54, %55
  br i1 %56, label %57, label %74

57:                                               ; preds = %53
  %58 = load double, double* %7, align 8
  %59 = load double*, double** %9, align 8
  %60 = load double, double* %59, align 8
  %61 = load double, double* %8, align 8
  %62 = fsub double %60, %61
  %63 = load double*, double** %9, align 8
  %64 = load double, double* %63, align 8
  %65 = load double, double* %8, align 8
  %66 = fsub double %64, %65
  %67 = fmul double %62, %66
  %68 = fadd double %58, %67
  store double %68, double* %7, align 8
  br label %69

69:                                               ; preds = %57
  %70 = load i32, i32* %4, align 4
  %71 = add nsw i32 %70, 1
  store i32 %71, i32* %4, align 4
  %72 = load double*, double** %9, align 8
  %73 = getelementptr inbounds double, double* %72, i32 1
  store double* %73, double** %9, align 8
  br label %53

74:                                               ; preds = %53
  %75 = load double, double* %7, align 8
  %76 = load i32, i32* %3, align 4
  %77 = sitofp i32 %76 to double
  %78 = fdiv double %75, %77
  store double %78, double* %7, align 8
  %79 = load double, double* %7, align 8
  %80 = call double @sqrt(double %79) #3
  store double %80, double* %7, align 8
  %81 = load double, double* %7, align 8
  %82 = call i32 (i8*, ...) @printf(i8* getelementptr inbounds ([6 x i8], [6 x i8]* @.str.2, i64 0, i64 0), double %81)
  %83 = getelementptr inbounds [1000 x double], [1000 x double]* %10, i64 0, i64 0
  store double* %83, double** %9, align 8
  store i32 0, i32* %4, align 4
  br label %84

84:                                               ; preds = %90, %74
  %85 = load i32, i32* %4, align 4
  %86 = load i32, i32* %3, align 4
  %87 = icmp slt i32 %85, %86
  br i1 %87, label %88, label %95

88:                                               ; preds = %84
  %89 = load double*, double** %9, align 8
  store double 0.000000e+00, double* %89, align 8
  br label %90

90:                                               ; preds = %88
  %91 = load i32, i32* %4, align 4
  %92 = add nsw i32 %91, 1
  store i32 %92, i32* %4, align 4
  %93 = load double*, double** %9, align 8
  %94 = getelementptr inbounds double, double* %93, i32 1
  store double* %94, double** %9, align 8
  br label %84

95:                                               ; preds = %84
  br label %96

96:                                               ; preds = %95
  %97 = load i32, i32* %5, align 4
  %98 = add nsw i32 %97, 1
  store i32 %98, i32* %5, align 4
  br label %12

99:                                               ; preds = %12
  ret i32 0
}

declare dso_local i32 @__isoc99_scanf(i8*, ...) #1

; Function Attrs: nounwind
declare dso_local double @sqrt(double) #2

declare dso_local i32 @printf(i8*, ...) #1


!llvm.module.flags = !{!0}
!llvm.ident = !{!1}

!0 = !{i32 1, !"wchar_size", i32 4}
!1 = !{!"clang version 10.0.0-4ubuntu1 "}
